target datalayout = "e-m:e-p270:32:32-p271:32:32-p272:64:64-i64:64-i128:128-f80:128-n8:16:32:64-S128"
target triple = "x86_64-pc-linux-gnu"

@proto_register_ubertooth.ett = internal global [7 x ptr] [ptr @ett_ubertooth, ptr @ett_command, ptr @ett_usb_rx_packet, ptr @ett_usb_rx_packet_data, ptr @ett_entry, ptr @ett_register_value, ptr @ett_fsdiv_frequency], align 16
@command_info = internal global ptr null, align 8
@.str.529 = private unnamed_addr constant [10 x i8] c"Ubertooth\00", align 1
@.str.530 = private unnamed_addr constant [10 x i8] c"UBERTOOTH\00", align 1
@.str.531 = private unnamed_addr constant [10 x i8] c"ubertooth\00", align 1
@proto_ubertooth = internal global i32 0, align 4
@ubertooth_handle = internal global ptr null, align 8
@.str.532 = private unnamed_addr constant [8 x i8] c"version\00", align 1
@.str.533 = private unnamed_addr constant [75 x i8] c"Ubertooth Firmware: 2012-10-R1 (also latest version prior to: git-4470774)\00", align 1
@.str.534 = private unnamed_addr constant [49 x i8] c"Version of protocol supported by this dissector.\00", align 1

; Function Attrs: null_pointer_is_valid sspstrong uwtable
define hidden void @proto_register_ubertooth() #0 {
  %1 = alloca ptr, align 8
  %2 = alloca ptr, align 8
  call void @llvm.lifetime.start.p0(i64 8, ptr %1) #5
  call void @llvm.lifetime.start.p0(i64 8, ptr %2) #5
  %3 = call ptr @wmem_epan_scope()
  %4 = call ptr @wmem_file_scope()
  %5 = call noalias ptr @wmem_tree_new_autoreset(ptr noundef %3, ptr noundef %4)
  store ptr %5, ptr @command_info, align 8
  %6 = call i32 @proto_register_protocol(ptr noundef @.str.529, ptr noundef @.str.530, ptr noundef @.str.531)
  store i32 %6, ptr @proto_ubertooth, align 4
  %7 = load i32, ptr @proto_ubertooth, align 4
  call void @proto_register_field_array(i32 noundef %7, ptr noundef @proto_register_ubertooth.hf, i32 noundef 286)
  call void @proto_register_subtree_array(ptr noundef @proto_register_ubertooth.ett, i32 noundef 7)
  %8 = load i32, ptr @proto_ubertooth, align 4
  %9 = call ptr @register_dissector(ptr noundef @.str.531, ptr noundef @dissect_ubertooth, i32 noundef %8)
  store ptr %9, ptr @ubertooth_handle, align 8
  %10 = load i32, ptr @proto_ubertooth, align 4
  %11 = call ptr @expert_register_protocol(i32 noundef %10)
  store ptr %11, ptr %2, align 8
  %12 = load ptr, ptr %2, align 8
  call void @expert_register_field_array(ptr noundef %12, ptr noundef @proto_register_ubertooth.ei, i32 noundef 3)
  %13 = load i32, ptr @proto_ubertooth, align 4
  %14 = call ptr @prefs_register_protocol(i32 noundef %13, ptr noundef null)
  store ptr %14, ptr %1, align 8
  %15 = load ptr, ptr %1, align 8
  call void @prefs_register_static_text_preference(ptr noundef %15, ptr noundef @.str.532, ptr noundef @.str.533, ptr noundef @.str.534)
  call void @llvm.lifetime.end.p0(i64 8, ptr %2) #5
  call void @llvm.lifetime.end.p0(i64 8, ptr %1) #5
  ret void
}